(lp1
S'lib1'
p2
a(dp3
S'biolog'
p4
(i__main__
NodeDesc
p5
(dp6
S'name'
p7
g4
sS'synonymous'
p8
NsS'children'
p9
(lp10
S'scienc'
p11
aS'scienc'
p12
asS'parents'
p13
(lp14
sS'ID'
p15
NsS'description'
p16
Nsbsg11
(i__main__
NodeDesc
p17
(dp18
g7
g11
sg8
Nsg9
(lp19
S'first'
p20
aS'conc2'
p21
asg13
g14
sg15
Nsg16
Nsbsg21
(lp22
(i__main__
NodeDesc
p23
(dp24
g7
g21
sg8
S'conc2'
p25
sg9
(lp26
sg13
(lp27
g12
aS'biolog'
p28
asg15
I1
sg16
S'desc2'
p29
sbasg20
(lp30
(i__main__
NodeDesc
p31
(dp32
g7
g20
sg8
S'first'
p33
sg9
g26
sg13
(lp34
g11
ag4
asg15
I1
sg16
S'desc1'
p35
sbasa(dp36
I1
(lp37
S'<__main__.NodeDesc instance at 0x3860ef0> and <__main__.NodeDesc instance at 0x3860b00>'
p38
a(i__main__
Edge
p39
(dp40
S'relation'
p41
S'relationship1'
p42
sbasa(dp43
g25
c__builtin__
set
p44
((lp45
g21
atRp46
sg33
g44
((lp47
g20
atRp48
sa(dp49
a.